; Function Attrs: nounwind uwtable
define internal ptr @dict_getitem_knownhash(ptr readnone captures(none) %0, ptr noundef %1) #0 {
  %3 = alloca ptr, align 8
  %4 = alloca ptr, align 8
  %5 = alloca i64, align 8
  call void @llvm.lifetime.start.p0(i64 8, ptr nonnull %3) #11
  call void @llvm.lifetime.start.p0(i64 8, ptr nonnull %4) #11
  call void @llvm.lifetime.start.p0(i64 8, ptr nonnull %5) #11
  %6 = call i32 (ptr, ptr, ...) @PyArg_ParseTuple(ptr noundef %1, ptr noundef nonnull @.str.232, ptr noundef nonnull %3, ptr noundef nonnull %4, ptr noundef nonnull %5) #11
  %.not = icmp eq i32 %6, 0
  br i1 %.not, label %_Py_XNewRef.exit, label %7

7:                                                ; preds = %2
  %8 = load ptr, ptr %3, align 8, !tbaa !9
  %9 = load ptr, ptr %4, align 8, !tbaa !9
  %10 = load i64, ptr %5, align 8, !tbaa !26
  %11 = call ptr @_PyDict_GetItem_KnownHash(ptr noundef %8, ptr noundef %9, i64 noundef %10) #11
  %12 = icmp eq ptr %11, null
  br i1 %12, label %17, label %.split

.split:                                           ; preds = %7
  %13 = load i32, ptr %11, align 8, !tbaa !10
  %14 = icmp slt i32 %13, 0
  br i1 %14, label %_Py_XNewRef.exit, label %15

15:                                               ; preds = %.split
  %16 = add nuw i32 %13, 1
  store i32 %16, ptr %11, align 8, !tbaa !10
  br label %_Py_XNewRef.exit

17:                                               ; preds = %7
  %18 = call ptr @PyErr_Occurred() #11
  %.not6 = icmp eq ptr %18, null
  br i1 %.not6, label %19, label %_Py_XNewRef.exit

19:                                               ; preds = %17
  %20 = load ptr, ptr %4, align 8, !tbaa !9
  call void @_PyErr_SetKeyError(ptr noundef %20) #11
  br label %_Py_XNewRef.exit

_Py_XNewRef.exit:                                 ; preds = %17, %15, %.split, %2, %19
  %.0 = phi ptr [ null, %19 ], [ null, %2 ], [ %11, %.split ], [ %11, %15 ], [ null, %17 ]
  call void @llvm.lifetime.end.p0(i64 8, ptr nonnull %5) #11
  call void @llvm.lifetime.end.p0(i64 8, ptr nonnull %4) #11
  call void @llvm.lifetime.end.p0(i64 8, ptr nonnull %3) #11
  ret ptr %.0
}